(lp0
(iParticleClass
Particle
p1
(dp2
S'color'
p3
(I245
I111
I83
I1
tp4
sS'static'
p5
I00
sS'radius'
p6
F198.2145302443794
sS'velocity'
p7
(lp8
F-0.004764242685676469
aF0.010838992590020531
asS'position'
p9
(lp10
F528.9981631587987
aF367.0022583177558
asS'path'
p11
(lp12
(I529
I367
tp13
a(F529.0000124172379
F366.9999619837969
tp14
a(F529.000036117375
F366.99988518866473
tp15
a(F529.0000711450649
F366.9997692416156
tp16
a(F529.0001176065763
F366.9996135529868
tp17
a(F529.000175672773
F366.999417299553
tp18
a(F529.0002455837453
F366.9991793997985
tp19
a(F529.0003276551415
F366.9988984793234
tp20
a(F529.000422286077
F366.99857282311063
tp21
a(F529.0005332910571
F366.99820730993457
tp22
a(F529.0006599501206
F366.9977934562959
tp23
a(F529.000801968283
F366.99732851731704
tp24
a(F529.0009604693316
F366.9968089897017
tp25
a(F529.0011368654108
F366.9962306695174
tp26
a(F529.0013329468807
F366.9955885882935
tp27
a(F529.0015647857241
F366.9945852214466
tp28
a(F529.0018264203662
F366.9934356625522
tp29
a(F529.0017530711497
F366.9935970004531
tp30
a(F529.0016778807776
F366.99376197648667
tp31
a(F529.0016007738692
F366.9939307773008
tp32
a(F529.0015216003258
F366.99410349257954
tp33
a(F529.0014402084013
F366.99428028297854
tp34
a(F529.001356409717
F366.99446132992966
tp35
a(F529.0012699643714
F366.99464683916756
tp36
a(F529.0011805561071
F366.994837045019
tp37
a(F529.0010877478171
F366.9950322157493
tp38
a(F529.0010140501157
F366.99523472540756
tp39
a(F529.0009388545053
F366.99544301706914
tp40
a(F529.0008620479546
F366.9956575401303
tp41
a(F529.0007834954814
F366.9958788317017
tp42
a(F529.0007030406382
F366.99610754840955
tp43
a(F529.0006205572297
F366.9963445248896
tp44
a(F529.0005357087905
F366.99659074654454
tp45
a(F529.0004481862237
F366.9968475129209
tp46
a(F529.0003575622948
F366.9971165641514
tp47
a(F529.0002632550021
F366.9974003131689
tp48
a(F529.0001643953344
F366.9977023158284
tp49
a(F529.0001166413435
F366.997811190984
tp50
a(F529.0000688819948
F366.9979200996588
tp51
a(F529.0000211158674
F366.9980290462843
tp52
a(F528.9999734290502
F366.9981379497184
tp53
a(F528.9999258322291
F366.9982468064608
tp54
a(F528.9998782371108
F366.99835571012983
tp55
a(F528.9998306437369
F366.9984646703488
tp56
a(F528.9997830013101
F366.99857306027474
tp57
a(F528.9997353588833
F366.99868145020065
tp58
a(F528.9996877164565
F366.99878984012656
tp59
a(F528.9996400740297
F366.9988982300525
tp60
a(F528.9995924316029
F366.9990066199784
tp61
a(F528.9995447891761
F366.9991150099043
tp62
a(F528.9994971467493
F366.9992233998302
tp63
a(F528.9994495043225
F366.9993317897561
tp64
a(F528.9994018618956
F366.99944017968204
tp65
a(F528.9993542194688
F366.99954856960795
tp66
a(F528.999306577042
F366.99965695953387
tp67
a(F528.9992589346152
F366.9997653494598
tp68
a(F528.9992112921884
F366.9998737393857
tp69
a(F528.9991636497616
F366.9999821293116
tp70
a(F528.9991160073348
F367.0000905192375
tp71
a(F528.999068364908
F367.00019890916343
tp72
a(F528.9990207224812
F367.00030729908934
tp73
a(F528.9989730800544
F367.00041568901526
tp74
a(F528.9989254376276
F367.00052407894117
tp75
a(F528.9988777952008
F367.0006324688671
tp76
a(F528.998830152774
F367.000740858793
tp77
a(F528.9987825103472
F367.0008492487189
tp78
a(F528.9987348679203
F367.0009576386448
tp79
a(F528.9986872254935
F367.00106602857073
tp80
a(F528.9986395830667
F367.00117441849665
tp81
a(F528.9985919406399
F367.00128280842256
tp82
a(F528.9985442982131
F367.0013911983485
tp83
a(F528.9984966557863
F367.0014995882744
tp84
a(F528.9984490133595
F367.0016079782003
tp85
a(F528.9984013709327
F367.0017163681262
tp86
a(F528.9983537285059
F367.0018247580521
tp87
a(F528.9983060860791
F367.00193314797804
tp88
a(F528.9982584436523
F367.00204153790395
tp89
a(F528.9982108012255
F367.00214992782986
tp90
a(F528.9981631587987
F367.0022583177558
tp91
a(F528.9981631587987
F367.0022583177558
tp92
a(F528.9981631587987
F367.0022583177558
tp93
a(F528.9981631587987
F367.0022583177558
tp94
a(F528.9981631587987
F367.0022583177558
tp95
a(F528.9981631587987
F367.0022583177558
tp96
a(F528.9981631587987
F367.0022583177558
tp97
a(F528.9981631587987
F367.0022583177558
tp98
a(F528.9981631587987
F367.0022583177558
tp99
a(F528.9981631587987
F367.0022583177558
tp100
a(F528.9981631587987
F367.0022583177558
tp101
a(F528.9981631587987
F367.0022583177558
tp102
a(F528.9981631587987
F367.0022583177558
tp103
a(F528.9981631587987
F367.0022583177558
tp104
a(F528.9981631587987
F367.0022583177558
tp105
a(F528.9981631587987
F367.0022583177558
tp106
a(F528.9981631587987
F367.0022583177558
tp107
a(F528.9981631587987
F367.0022583177558
tp108
a(F528.9981631587987
F367.0022583177558
tp109
a(F528.9981631587987
F367.0022583177558
tp110
a(F528.9981631587987
F367.0022583177558
tp111
a(F528.9981631587987
F367.0022583177558
tp112
a(F528.9981631587987
F367.0022583177558
tp113
a(F528.9981631587987
F367.0022583177558
tp114
a(F528.9981631587987
F367.0022583177558
tp115
a(F528.9981631587987
F367.0022583177558
tp116
a(F528.9981631587987
F367.0022583177558
tp117
a(F528.9981631587987
F367.0022583177558
tp118
a(F528.9981631587987
F367.0022583177558
tp119
a(F528.9981631587987
F367.0022583177558
tp120
a(F528.9981631587987
F367.0022583177558
tp121
a(F528.9981631587987
F367.0022583177558
tp122
a(F528.9981631587987
F367.0022583177558
tp123
a(F528.9981631587987
F367.0022583177558
tp124
a(F528.9981631587987
F367.0022583177558
tp125
a(F528.9981631587987
F367.0022583177558
tp126
a(F528.9981631587987
F367.0022583177558
tp127
a(F528.9981631587987
F367.0022583177558
tp128
a(F528.9981631587987
F367.0022583177558
tp129
a(F528.9981631587987
F367.0022583177558
tp130
a(F528.9981631587987
F367.0022583177558
tp131
a(F528.9981631587987
F367.0022583177558
tp132
a(F528.9981631587987
F367.0022583177558
tp133
a(F528.9981631587987
F367.0022583177558
tp134
a(F528.9981631587987
F367.0022583177558
tp135
a(F528.9981631587987
F367.0022583177558
tp136
a(F528.9981631587987
F367.0022583177558
tp137
a(F528.9981631587987
F367.0022583177558
tp138
a(F528.9981631587987
F367.0022583177558
tp139
a(F528.9981631587987
F367.0022583177558
tp140
asS'mass'
p141
F1543797242.3884873
sS'delete'
p142
I00
sba.